(dp0
I1
(dp1
S'rotation'
p2
cnumpy.core.multiarray
_reconstruct
p3
(cnumpy
ndarray
p4
(I0
tp5
S'b'
p6
tp7
Rp8
(I1
(L3L
tp9
cnumpy
dtype
p10
(S'f4'
p11
I0
I1
tp12
Rp13
(I3
S'<'
p14
NNNI-1
I-1
I0
tp15
bI00
S'\x81q\xef\x07\xc3G\xd0\x08KW\xc4\x89'
p16
tp17
bsS'reaction_force'
p18
g3
(g4
(I0
tp19
g6
tp20
Rp21
(I1
(L3L
tp22
g13
I00
S'T(\xb8\xc0\xe8?\x02\xc4>\x9b\xa5\xc2'
p23
tp24
bsS'mises_stress'
p25
(dp26
S'max'
p27
F8.10707092285156
sS'average'
p28
cnumpy.core.multiarray
scalar
p29
(g10
(S'f8'
p30
I0
I1
tp31
Rp32
(I3
S'<'
p33
NNNI-1
I-1
I0
tp34
bS'\xa6\x06\xb6\x8c\x1eu\x10@'
p35
tp36
Rp37
sS'min'
p38
F0.0591585449874401
ssS'displacement'
p39
(dp40
S'zMax'
p41
g3
(g4
(I0
tp42
g6
tp43
Rp44
(I1
(L3L
tp45
g13
I00
S'\xea\xe9?\xbb%\x96\x87\xbdRo\x1c<'
p46
tp47
bsS'yMax'
p48
g3
(g4
(I0
tp49
g6
tp50
Rp51
(I1
(L3L
tp52
g13
I00
S':\rz\x89\x9c\x99\x99\xbd$M\x0c\t'
p53
tp54
bsS'xMax'
p55
g3
(g4
(I0
tp56
g6
tp57
Rp58
(I1
(L3L
tp59
g13
I00
S'\xd9\x92\xa9<A7\x9b\xbc\xb6\xff-;'
p60
tp61
bsssI2
(dp62
S'rotation'
p63
g3
(g4
(I0
tp64
g6
tp65
Rp66
(I1
(L3L
tp67
g10
(S'f4'
p68
I0
I1
tp69
Rp70
(I3
S'<'
p71
NNNI-1
I-1
I0
tp72
bI00
S'G\xd4\x90\x89\xbfQ\x0e\t\x87]\xae\x89'
p73
tp74
bsS'reaction_force'
p75
g3
(g4
(I0
tp76
g6
tp77
Rp78
(I1
(L3L
tp79
g70
I00
S'\xbc\xd0x\xc1\xe7I\xfb\xc3\xb3?\x01\xc3'
p80
tp81
bsS'mises_stress'
p82
(dp83
S'max'
p84
F8.91290950775146
sS'average'
p85
g29
(g32
S'R\xe2\xa7\x08p\x14\x11@'
p86
tp87
Rp88
sS'min'
p89
F0.0335053242743015
ssS'displacement'
p90
(dp91
S'zMax'
p92
g3
(g4
(I0
tp93
g6
tp94
Rp95
(I1
(L3L
tp96
g70
I00
S'\xf8\xc7\xe2\xb9wY\x94\xbd\x96\xf9\xa2;'
p97
tp98
bsS'yMax'
p99
g3
(g4
(I0
tp100
g6
tp101
Rp102
(I1
(L3L
tp103
g70
I00
S'+\xb8:\x88\x9d\x99\x99\xbd\x1fN\xcd\t'
p104
tp105
bsS'xMax'
p106
g3
(g4
(I0
tp107
g6
tp108
Rp109
(I1
(L3L
tp110
g70
I00
S'\n=\x15<\x0b!B\xbd\x13\xa5V\xbb'
p111
tp112
bsssI3
(dp113
S'rotation'
p114
g3
(g4
(I0
tp115
g6
tp116
Rp117
(I1
(L3L
tp118
g10
(S'f4'
p119
I0
I1
tp120
Rp121
(I3
S'<'
p122
NNNI-1
I-1
I0
tp123
bI00
S'\x8f\xd4\xf2\x87\x8c\x0c]\x88.\xa5t\t'
p124
tp125
bsS'reaction_force'
p126
g3
(g4
(I0
tp127
g6
tp128
Rp129
(I1
(L3L
tp130
g121
I00
S'\xa0B\x1f\xc0{\xf3L\xc3\\\xac\xb7\xc1'
p131
tp132
bsS'mises_stress'
p133
(dp134
S'max'
p135
F6.14800024032593
sS'average'
p136
g29
(g32
S'4\xd6\x87\xd4\xcfw\t@'
p137
tp138
Rp139
sS'min'
p140
F0.0963334292173386
ssS'displacement'
p141
(dp142
S'zMax'
p143
g3
(g4
(I0
tp144
g6
tp145
Rp146
(I1
(L3L
tp147
g121
I00
S'\x8c|\x82\xbbSU\x93\xbd\xfeA\x04<'
p148
tp149
bsS'yMax'
p150
g3
(g4
(I0
tp151
g6
tp152
Rp153
(I1
(L3L
tp154
g121
I00
S'\n\xa1k\t\x9a\x99\x99\xbd\xb4\x04\xeb\x08'
p155
tp156
bsS'xMax'
p157
g3
(g4
(I0
tp158
g6
tp159
Rp160
(I1
(L3L
tp161
g121
I00
S'\xa5U{<\x9di\x81\xbc\xeb\x1b\x1b<'
p162
tp163
bsssI4
(dp164
S'rotation'
p165
g3
(g4
(I0
tp166
g6
tp167
Rp168
(I1
(L3L
tp169
g10
(S'f4'
p170
I0
I1
tp171
Rp172
(I3
S'<'
p173
NNNI-1
I-1
I0
tp174
bI00
S'\x13\x83\xab\x88\xaeij\x88B(\x18\t'
p175
tp176
bsS'reaction_force'
p177
g3
(g4
(I0
tp178
g6
tp179
Rp180
(I1
(L3L
tp181
g172
I00
S'?\x1b&\xc0\x06\xfa\xc5\xc2}m\x15\xc2'
p182
tp183
bsS'mises_stress'
p184
(dp185
S'max'
p186
F8.19868183135986
sS'average'
p187
g29
(g32
S'\xb0\xf8\x8a\x83\x06\xf7\xfe?'
p188
tp189
Rp190
sS'min'
p191
F0.0167155805975199
ssS'displacement'
p192
(dp193
S'zMax'
p194
g3
(g4
(I0
tp195
g6
tp196
Rp197
(I1
(L3L
tp198
g172
I00
S'\x90\x04\xd7\xbb\x06H\xa4\xbd\xdf\xa3\xb0\xbb'
p199
tp200
bsS'yMax'
p201
g3
(g4
(I0
tp202
g6
tp203
Rp204
(I1
(L3L
tp205
g172
I00
S'"e\xd9\x88\x99\x99\x99\xbdn\x8c\x83\t'
p206
tp207
bsS'xMax'
p208
g3
(g4
(I0
tp209
g6
tp210
Rp211
(I1
(L3L
tp212
g172
I00
S'\xcds\xeb;C\xb7F\xbd2\xb0\x0b\xba'
p213
tp214
bsssI5
(dp215
S'rotation'
p216
g3
(g4
(I0
tp217
g6
tp218
Rp219
(I1
(L3L
tp220
g10
(S'f4'
p221
I0
I1
tp222
Rp223
(I3
S'<'
p224
NNNI-1
I-1
I0
tp225
bI00
S'\x0b\xd4\xd0\x89\x92\xc2-\x05|[\x90\t'
p226
tp227
bsS'reaction_force'
p228
g3
(g4
(I0
tp229
g6
tp230
Rp231
(I1
(L3L
tp232
g223
I00
S'=8\x8f\xc2\xbf\xa8\x9e\xc3\x0f\xdeb\xc2'
p233
tp234
bsS'mises_stress'
p235
(dp236
S'max'
p237
F7.65110635757446
sS'average'
p238
g29
(g32
S'\xba\xe8\xa2#\xf93\x0e@'
p239
tp240
Rp241
sS'min'
p242
F0.28795063495636
ssS'displacement'
p243
(dp244
S'zMax'
p245
g3
(g4
(I0
tp246
g6
tp247
Rp248
(I1
(L3L
tp249
g223
I00
S'k\xdc\x919[\xa2?\xbd\x94\xa8,<'
p250
tp251
bsS'yMax'
p252
g3
(g4
(I0
tp253
g6
tp254
Rp255
(I1
(L3L
tp256
g223
I00
S'\xd8\x1e_\t\x9b\x99\x99\xbd\xcb\x82\x9e\t'
p257
tp258
bsS'xMax'
p259
g3
(g4
(I0
tp260
g6
tp261
Rp262
(I1
(L3L
tp263
g223
I00
S' y\xff\xba\xf4\xf4\x97\xbd\x11\xef\x03\xba'
p264
tp265
bsssI6
(dp266
S'rotation'
p267
g3
(g4
(I0
tp268
g6
tp269
Rp270
(I1
(L3L
tp271
g10
(S'f4'
p272
I0
I1
tp273
Rp274
(I3
S'<'
p275
NNNI-1
I-1
I0
tp276
bI00
S'GM\xbb\x89\r\xfb\xbd\x86\xc7\xcb\xfa\x08'
p277
tp278
bsS'reaction_force'
p279
g3
(g4
(I0
tp280
g6
tp281
Rp282
(I1
(L3L
tp283
g274
I00
S'}g\x0f\xc1bP\x1a\xc32Do\xc1'
p284
tp285
bsS'mises_stress'
p286
(dp287
S'max'
p288
F7.82920408248901
sS'average'
p289
g29
(g32
S'\xd1E\x97\xfa<\xbb\x04@'
p290
tp291
Rp292
sS'min'
p293
F0.100105151534081
ssS'displacement'
p294
(dp295
S'zMax'
p296
g3
(g4
(I0
tp297
g6
tp298
Rp299
(I1
(L3L
tp300
g274
I00
S'\x1cS\xf6:\x93\xcfc\xbd;\x90\xac\xbc'
p301
tp302
bsS'yMax'
p303
g3
(g4
(I0
tp304
g6
tp305
Rp306
(I1
(L3L
tp307
g274
I00
S'\x16E\x80\x08\x99\x99\x99\xbd\xb7g\x8f\t'
p308
tp309
bsS'xMax'
p310
g3
(g4
(I0
tp311
g6
tp312
Rp313
(I1
(L3L
tp314
g274
I00
S'\x1f7\xfe<M\xe7\x9e\xbc\xf7\x84J<'
p315
tp316
bsssI7
(dp317
S'rotation'
p318
g3
(g4
(I0
tp319
g6
tp320
Rp321
(I1
(L3L
tp322
g10
(S'f4'
p323
I0
I1
tp324
Rp325
(I3
S'<'
p326
NNNI-1
I-1
I0
tp327
bI00
S']\x0e\x8d\x88L\xc2\x1f\t\x06\xdc\xef\x89'
p328
tp329
bsS'reaction_force'
p330
g3
(g4
(I0
tp331
g6
tp332
Rp333
(I1
(L3L
tp334
g325
I00
S'i!\x81@\x10R\xc4\xc3B.\x8d\xc2'
p335
tp336
bsS'mises_stress'
p337
(dp338
S'max'
p339
F8.5009651184082
sS'average'
p340
g29
(g32
S'"XG\xdc\xdbn\x0f@'
p341
tp342
Rp343
sS'min'
p344
F0.0954821184277534
ssS'displacement'
p345
(dp346
S'zMax'
p347
g3
(g4
(I0
tp348
g6
tp349
Rp350
(I1
(L3L
tp351
g325
I00
S'\x9e\x19P;\x8f\x1f\x8b\xbdE\x0c#<'
p352
tp353
bsS'yMax'
p354
g3
(g4
(I0
tp355
g6
tp356
Rp357
(I1
(L3L
tp358
g325
I00
S'\xb8\x0f\xb4\x89\x9b\x99\x99\xbd\xe1m\x12\n'
p359
tp360
bsS'xMax'
p361
g3
(g4
(I0
tp362
g6
tp363
Rp364
(I1
(L3L
tp365
g325
I00
S'\x92\xb1\xae<\x1a\x04\xde8\x89\x171\xbc'
p366
tp367
bsssI8
(dp368
S'rotation'
p369
g3
(g4
(I0
tp370
g6
tp371
Rp372
(I1
(L3L
tp373
g10
(S'f4'
p374
I0
I1
tp375
Rp376
(I3
S'<'
p377
NNNI-1
I-1
I0
tp378
bI00
S'W\x18)\x89e\xd0x\x84zSc\x87'
p379
tp380
bsS'reaction_force'
p381
g3
(g4
(I0
tp382
g6
tp383
Rp384
(I1
(L3L
tp385
g376
I00
S'\xe0eL?\xee\xc6k\xc3\x1b\x1dqA'
p386
tp387
bsS'mises_stress'
p388
(dp389
S'max'
p390
F7.93998908996582
sS'average'
p391
g29
(g32
S"\x85\xf6\xd2'\xf3\xef\x07@"
p392
tp393
Rp394
sS'min'
p395
F0.0365019626915455
ssS'displacement'
p396
(dp397
S'zMax'
p398
g3
(g4
(I0
tp399
g6
tp400
Rp401
(I1
(L3L
tp402
g376
I00
S'\xff\xeb ;\x90\x7f\xad\xbc\xd7\x88\xed<'
p403
tp404
bsS'yMax'
p405
g3
(g4
(I0
tp406
g6
tp407
Rp408
(I1
(L3L
tp409
g376
I00
S'\xe3s\x14\x87\x9b\x99\x99\xbdU\n\xfb\x08'
p410
tp411
bsS'xMax'
p412
g3
(g4
(I0
tp413
g6
tp414
Rp415
(I1
(L3L
tp416
g376
I00
S'YYR<\x9f\xcf\xea\xbc?)\xf5<'
p417
tp418
bsssI9
(dp419
S'rotation'
p420
g3
(g4
(I0
tp421
g6
tp422
Rp423
(I1
(L3L
tp424
g10
(S'f4'
p425
I0
I1
tp426
Rp427
(I3
S'<'
p428
NNNI-1
I-1
I0
tp429
bI00
S'\x1f\x83\x08\n\xd0\xc7s\x07xU\x98\t'
p430
tp431
bsS'reaction_force'
p432
g3
(g4
(I0
tp433
g6
tp434
Rp435
(I1
(L3L
tp436
g427
I00
S'\\\xbe\xae\xc1\x88<|\xc3Z\x08(B'
p437
tp438
bsS'mises_stress'
p439
(dp440
S'max'
p441
F7.1335768699646
sS'average'
p442
g29
(g32
S'Hp\x1f/.\xda\x08@'
p443
tp444
Rp445
sS'min'
p446
F0.138751372694969
ssS'displacement'
p447
(dp448
S'zMax'
p449
g3
(g4
(I0
tp450
g6
tp451
Rp452
(I1
(L3L
tp453
g427
I00
S'B\xde\x90\xbb|\x9az\xbbP\x85\xc2<'
p454
tp455
bsS'yMax'
p456
g3
(g4
(I0
tp457
g6
tp458
Rp459
(I1
(L3L
tp460
g427
I00
S'\xc0z\x1f\t\x99\x99\x99\xbdU4\xdd\x89'
p461
tp462
bsS'xMax'
p463
g3
(g4
(I0
tp464
g6
tp465
Rp466
(I1
(L3L
tp467
g427
I00
S'\xb2\x85\x1e;\xaf\x1e\xf8\xbc)\x89\x8a<'
p468
tp469
bsssI10
(dp470
S'rotation'
p471
g3
(g4
(I0
tp472
g6
tp473
Rp474
(I1
(L3L
tp475
g10
(S'f4'
p476
I0
I1
tp477
Rp478
(I3
S'<'
p479
NNNI-1
I-1
I0
tp480
bI00
S'">\x86\x88\xd1\xfb&\x88{OG\x08'
p481
tp482
bsS'reaction_force'
p483
g3
(g4
(I0
tp484
g6
tp485
Rp486
(I1
(L3L
tp487
g478
I00
S'T%\xff\xc1\xc7\xaf \xc3\xc0\xf6\xb8A'
p488
tp489
bsS'mises_stress'
p490
(dp491
S'max'
p492
F7.988037109375
sS'average'
p493
g29
(g32
S'\x10\x93\xcb\xd6.1\x04@'
p494
tp495
Rp496
sS'min'
p497
F0.0140322549268603
ssS'displacement'
p498
(dp499
S'zMax'
p500
g3
(g4
(I0
tp501
g6
tp502
Rp503
(I1
(L3L
tp504
g478
I00
S'\x17z\xcc:9\xfa\xdf\xbc\x87\xc5\xf8<'
p505
tp506
bsS'yMax'
p507
g3
(g4
(I0
tp508
g6
tp509
Rp510
(I1
(L3L
tp511
g478
I00
S'\xa53\xa5\x08\x9c\x99\x99\xbd\xef9K\x08'
p512
tp513
bsS'xMax'
p514
g3
(g4
(I0
tp515
g6
tp516
Rp517
(I1
(L3L
tp518
g478
I00
S'\x96#\xa3:k\xc9\x9c\xbd\xa3!\x96\xba'
p519
tp520
bsss.