(dp0
I1
(dp1
S'rotation'
p2
cnumpy.core.multiarray
_reconstruct
p3
(cnumpy
ndarray
p4
(I0
tp5
S'b'
p6
tp7
Rp8
(I1
(L3L
tp9
cnumpy
dtype
p10
(S'f4'
p11
I0
I1
tp12
Rp13
(I3
S'<'
p14
NNNI-1
I-1
I0
tp15
bI00
S'\xcd\xef\xb3\x88\xeb\xd9\x9b\x86\xd4\x92\xa5\x87'
p16
tp17
bsS'reaction_force'
p18
g3
(g4
(I0
tp19
g6
tp20
Rp21
(I1
(L3L
tp22
g13
I00
S'\x1ez\xaf@\xda\x9b|\xc2f\xf21\xbf'
p23
tp24
bsS'mises_stress'
p25
(dp26
S'max'
p27
F6.19140243530273
sS'average'
p28
cnumpy.core.multiarray
scalar
p29
(g10
(S'f8'
p30
I0
I1
tp31
Rp32
(I3
S'<'
p33
NNNI-1
I-1
I0
tp34
bS'\x17]t\xfe\xd1\x9e\x01@'
p35
tp36
Rp37
sS'min'
p38
F0.0518333166837692
ssS'displacement'
p39
(dp40
S'zMax'
p41
g3
(g4
(I0
tp42
g6
tp43
Rp44
(I1
(L3L
tp45
g13
I00
S'\xd5\xf9\xee<\xd7@\xd4\xbc*(\xa4\xbc'
p46
tp47
bsS'yMax'
p48
g3
(g4
(I0
tp49
g6
tp50
Rp51
(I1
(L3L
tp52
g13
I00
S'\x94IK\x87\xedQ8\xbd\xab!\xf3\x07'
p53
tp54
bsS'xMax'
p55
g3
(g4
(I0
tp56
g6
tp57
Rp58
(I1
(L3L
tp59
g13
I00
S'\xd3:V=eQ\x01\xbc\xfdK"\xbd'
p60
tp61
bsssI2
(dp62
S'rotation'
p63
g3
(g4
(I0
tp64
g6
tp65
Rp66
(I1
(L3L
tp67
g10
(S'f4'
p68
I0
I1
tp69
Rp70
(I3
S'<'
p71
NNNI-1
I-1
I0
tp72
bI00
S'\x08\xcd\xdc\x88\xb8~\xdd\x864B\xdd\x87'
p73
tp74
bsS'reaction_force'
p75
g3
(g4
(I0
tp76
g6
tp77
Rp78
(I1
(L3L
tp79
g70
I00
S'\xb3q\x1eA\xab\xf8\x93\xc2cS\t\xc1'
p80
tp81
bsS'mises_stress'
p82
(dp83
S'max'
p84
F6.22305250167847
sS'average'
p85
g29
(g32
S"b'v\x9e\xad\x8e\x02@"
p86
tp87
Rp88
sS'min'
p89
F0.0879421308636665
ssS'displacement'
p90
(dp91
S'zMax'
p92
g3
(g4
(I0
tp93
g6
tp94
Rp95
(I1
(L3L
tp96
g70
I00
S'}k\x89<c\x93\xc2\xbc`\x9f\x139'
p97
tp98
bsS'yMax'
p99
g3
(g4
(I0
tp100
g6
tp101
Rp102
(I1
(L3L
tp103
g70
I00
S'HQ\x8b\x87\xedQ8\xbd"k\x0f\x08'
p104
tp105
bsS'xMax'
p106
g3
(g4
(I0
tp107
g6
tp108
Rp109
(I1
(L3L
tp110
g70
I00
S'\xd2M&=s"\xa2\xbbS/\xb5;'
p111
tp112
bsssI3
(dp113
S'rotation'
p114
g3
(g4
(I0
tp115
g6
tp116
Rp117
(I1
(L3L
tp118
g10
(S'f4'
p119
I0
I1
tp120
Rp121
(I3
S'<'
p122
NNNI-1
I-1
I0
tp123
bI00
S';{\xb9\x88\xad\x06\xb3\x85k\x1f\xdf\x86'
p124
tp125
bsS'reaction_force'
p126
g3
(g4
(I0
tp127
g6
tp128
Rp129
(I1
(L3L
tp130
g121
I00
S'\xcf\x1bGA\x8f\x15\xeb\xc2&\x1c5\xc0'
p131
tp132
bsS'mises_stress'
p133
(dp134
S'max'
p135
F7.02112293243408
sS'average'
p136
g29
(g32
S'\xab\xaa\x8a~;m\x0b@'
p137
tp138
Rp139
sS'min'
p140
F0.0262038335204124
ssS'displacement'
p141
(dp142
S'zMax'
p143
g3
(g4
(I0
tp144
g6
tp145
Rp146
(I1
(L3L
tp147
g121
I00
S'\xb7\xe3\x93;;\xdd\x98\xbc\x08\xdd\x04<'
p148
tp149
bsS'yMax'
p150
g3
(g4
(I0
tp151
g6
tp152
Rp153
(I1
(L3L
tp154
g121
I00
S' \xc8\xa8\x86\xecQ8\xbd=\xbd!\x08'
p155
tp156
bsS'xMax'
p157
g3
(g4
(I0
tp158
g6
tp159
Rp160
(I1
(L3L
tp161
g121
I00
S'_\x1c\x9e<\xad\x03\x0c;\xc8\x1f\x99<'
p162
tp163
bsssI4
(dp164
S'rotation'
p165
g3
(g4
(I0
tp166
g6
tp167
Rp168
(I1
(L3L
tp169
g10
(S'f4'
p170
I0
I1
tp171
Rp172
(I3
S'<'
p173
NNNI-1
I-1
I0
tp174
bI00
S'\t\xc7-\x88\xe0!\xd8\x07\xf8~\xc5\x88'
p175
tp176
bsS'reaction_force'
p177
g3
(g4
(I0
tp178
g6
tp179
Rp180
(I1
(L3L
tp181
g172
I00
S'\x88\xb5%A\x949\x1d\xc3\x86\x1e\x96\xc1'
p182
tp183
bsS'mises_stress'
p184
(dp185
S'max'
p186
F7.90146923065186
sS'average'
p187
g29
(g32
S'\x00\x00`5\xcd^\x0c@'
p188
tp189
Rp190
sS'min'
p191
F0.237225696444511
ssS'displacement'
p192
(dp193
S'zMax'
p194
g3
(g4
(I0
tp195
g6
tp196
Rp197
(I1
(L3L
tp198
g172
I00
S'm\x1a*<\xe1D\x87\xbb\x16\xb3\x9d;'
p199
tp200
bsS'yMax'
p201
g3
(g4
(I0
tp202
g6
tp203
Rp204
(I1
(L3L
tp205
g172
I00
S'H\x9d5\x88\xedQ8\xbd[\xe8\x9a\x08'
p206
tp207
bsS'xMax'
p208
g3
(g4
(I0
tp209
g6
tp210
Rp211
(I1
(L3L
tp212
g172
I00
S'\x0eBL<\x12\x07\xc3<\xbb\xde\xa6<'
p213
tp214
bsssI5
(dp215
S'rotation'
p216
g3
(g4
(I0
tp217
g6
tp218
Rp219
(I1
(L3L
tp220
g10
(S'f4'
p221
I0
I1
tp222
Rp223
(I3
S'<'
p224
NNNI-1
I-1
I0
tp225
bI00
S'\xf1\x9e\xb7\x88\x1aqk\x85\x85v\x04\x85'
p226
tp227
bsS'reaction_force'
p228
g3
(g4
(I0
tp229
g6
tp230
Rp231
(I1
(L3L
tp232
g223
I00
S'\xb6R\x1c\xc1\x06n\xfd\xc2\xec\xd6B>'
p233
tp234
bsS'mises_stress'
p235
(dp236
S'max'
p237
F7.09766006469727
sS'average'
p238
g29
(g32
S'\xa3\x8b.\xb8\n`\x0f@'
p239
tp240
Rp241
sS'min'
p242
F0.158617720007896
ssS'displacement'
p243
(dp244
S'zMax'
p245
g3
(g4
(I0
tp246
g6
tp247
Rp248
(I1
(L3L
tp249
g223
I00
S'\xd1\x05\xc2<L\x11\x93\xbc\x8ft\xb8\xbb'
p250
tp251
bsS'yMax'
p252
g3
(g4
(I0
tp253
g6
tp254
Rp255
(I1
(L3L
tp256
g223
I00
S'Eq\xd4\x85\xecQ8\xbdE\x19&\x08'
p257
tp258
bsS'xMax'
p259
g3
(g4
(I0
tp260
g6
tp261
Rp262
(I1
(L3L
tp263
g223
I00
S'@\x88\x9a<\xac\xe9\x03<\xe3]\xc4\xbc'
p264
tp265
bsss.